; Function Attrs: nounwind uwtable
define internal ptr @frame_getlasti(ptr readnone captures(none) %0, ptr noundef %1) #0 {
  %3 = getelementptr i8, ptr %1, i64 8
  %.val = load ptr, ptr %3, align 8, !tbaa !3
  %.not = icmp eq ptr %.val, @PyFrame_Type
  br i1 %.not, label %6, label %4

4:                                                ; preds = %2
  %5 = load ptr, ptr @PyExc_TypeError, align 8, !tbaa !9
  tail call void @PyErr_SetString(ptr noundef %5, ptr noundef nonnull @.str.9) #4
  br label %15

6:                                                ; preds = %2
  %7 = tail call i32 @PyFrame_GetLasti(ptr noundef nonnull %1) #4
  %8 = icmp slt i32 %7, 0
  br i1 %8, label %9, label %12

9:                                                ; preds = %6
  %10 = icmp eq i32 %7, -1
  br i1 %10, label %15, label %11

11:                                               ; preds = %9
  tail call void @__assert_fail(ptr noundef nonnull @.str.10, ptr noundef nonnull @.str.11, i32 noundef 60, ptr noundef nonnull @__PRETTY_FUNCTION__.frame_getlasti) #5
  unreachable

12:                                               ; preds = %6
  %13 = zext nneg i32 %7 to i64
  %14 = tail call ptr @PyLong_FromLong(i64 noundef %13) #4
  br label %15

15:                                               ; preds = %12, %9, %4
  %.0 = phi ptr [ null, %4 ], [ %14, %12 ], [ @_Py_NoneStruct, %9 ]
  ret ptr %.0
}